; Function Attrs: mustprogress uwtable
define internal void @"_ZNSt17_Function_handlerIFvvEZN2tf8Executor15dependent_asyncIZ4mainE3$_2JRNS1_9AsyncTaskEETnPNSt9enable_ifIX10all_same_vIS5_DpNSt5decayIT0_E4typeEEEvE4typeELPv0EEEDaRKNSt7__cxx1112basic_stringIcSt11char_traitsIcESaIcEEEOT_DpOS9_EUlvE_E9_M_invokeERKSt9_Any_data"(ptr nocapture noundef nonnull readonly align 8 dereferenceable(16) %__functor) #6 align 2 {
entry:
  %__functor.val = load ptr, ptr %__functor, align 8
  %call.val = load ptr, ptr %__functor.val, align 8
  %cmp.i.not.i.i.i.i.i = icmp eq ptr %call.val, null
  br i1 %cmp.i.not.i.i.i.i.i, label %if.then.i.i.i.i.i, label %"_ZSt10__invoke_rIvRZN2tf8Executor15dependent_asyncIZ4mainE3$_2JRNS0_9AsyncTaskEETnPNSt9enable_ifIX10all_same_vIS4_DpNSt5decayIT0_E4typeEEEvE4typeELPv0EEEDaRKNSt7__cxx1112basic_stringIcSt11char_traitsIcESaIcEEEOT_DpOS8_EUlvE_JEENS6_IX16is_invocable_r_vISO_T0_DpT1_EESO_E4typeEOSU_DpOSV_.exit"

if.then.i.i.i.i.i:                                ; preds = %entry
  tail call void @_ZSt20__throw_future_errori(i32 noundef 3) #36
  unreachable

"_ZSt10__invoke_rIvRZN2tf8Executor15dependent_asyncIZ4mainE3$_2JRNS0_9AsyncTaskEETnPNSt9enable_ifIX10all_same_vIS4_DpNSt5decayIT0_E4typeEEEvE4typeELPv0EEEDaRKNSt7__cxx1112basic_stringIcSt11char_traitsIcESaIcEEEOT_DpOS8_EUlvE_JEENS6_IX16is_invocable_r_vISO_T0_DpT1_EESO_E4typeEOSU_DpOSV_.exit": ; preds = %entry
  %vtable.i.i.i.i = load ptr, ptr %call.val, align 8
  %vfn.i.i.i.i = getelementptr inbounds i8, ptr %vtable.i.i.i.i, i64 32
  %0 = load ptr, ptr %vfn.i.i.i.i, align 8
  tail call void %0(ptr noundef nonnull align 8 dereferenceable(40) %call.val)
  ret void
}